; Function Attrs: nounwind uwtable
define dso_local i64 @nghttp2_hd_inflate_hd(ptr noundef %0, ptr noundef writeonly captures(none) %1, ptr noundef captures(none) %2, ptr noundef %3, i64 noundef %4, i32 noundef %5) local_unnamed_addr #0 {
  %7 = alloca %struct.nghttp2_hd_nv, align 8
  call void @llvm.lifetime.start.p0(i64 24, ptr nonnull %7) #13
  %8 = call i64 @nghttp2_hd_inflate_hd_nv(ptr noundef %0, ptr noundef nonnull %7, ptr noundef %2, ptr noundef %3, i64 noundef %4, i32 noundef %5)
  %9 = icmp slt i64 %8, 0
  br i1 %9, label %nghttp2_hd_inflate_hd2.exit, label %10

10:                                               ; preds = %6
  %11 = load i32, ptr %2, align 4, !tbaa !10
  %12 = and i32 %11, 2
  %.not.i = icmp eq i32 %12, 0
  br i1 %.not.i, label %nghttp2_hd_inflate_hd2.exit, label %13

13:                                               ; preds = %10
  %14 = load ptr, ptr %7, align 8, !tbaa !13
  %15 = getelementptr inbounds nuw i8, ptr %14, i64 16
  %16 = load ptr, ptr %15, align 8, !tbaa !15
  store ptr %16, ptr %1, align 8, !tbaa !83
  %17 = getelementptr inbounds nuw i8, ptr %14, i64 24
  %18 = load i64, ptr %17, align 8, !tbaa !23
  %19 = getelementptr inbounds nuw i8, ptr %1, i64 16
  store i64 %18, ptr %19, align 8, !tbaa !84
  %20 = getelementptr inbounds nuw i8, ptr %7, i64 8
  %21 = load ptr, ptr %20, align 8, !tbaa !25
  %22 = getelementptr inbounds nuw i8, ptr %21, i64 16
  %23 = load ptr, ptr %22, align 8, !tbaa !15
  %24 = getelementptr inbounds nuw i8, ptr %1, i64 8
  store ptr %23, ptr %24, align 8, !tbaa !90
  %25 = getelementptr inbounds nuw i8, ptr %21, i64 24
  %26 = load i64, ptr %25, align 8, !tbaa !23
  %27 = getelementptr inbounds nuw i8, ptr %1, i64 24
  store i64 %26, ptr %27, align 8, !tbaa !87
  %28 = getelementptr inbounds nuw i8, ptr %7, i64 20
  %29 = load i8, ptr %28, align 4, !tbaa !28
  %30 = getelementptr inbounds nuw i8, ptr %1, i64 32
  store i8 %29, ptr %30, align 8, !tbaa !88
  br label %nghttp2_hd_inflate_hd2.exit

nghttp2_hd_inflate_hd2.exit:                      ; preds = %6, %10, %13
  call void @llvm.lifetime.end.p0(i64 24, ptr nonnull %7) #13
  ret i64 %8
}